; Function Attrs: mustprogress uwtable
define noundef zeroext i1 @_ZN6google8protobuf8internal14WireFormatLite16VerifyUtf8StringEPKciNS2_9OperationES4_(ptr noundef %0, i32 noundef %1, i32 noundef %2, ptr noundef %3) local_unnamed_addr #3 align 2 {
  %5 = tail call noundef zeroext i1 @_ZN6google8protobuf8internal23IsStructurallyValidUTF8EPKci(ptr noundef %0, i32 noundef %1)
  br i1 %5, label %7, label %6

6:                                                ; preds = %4
  %switch.selectcmp = icmp eq i32 %2, 1
  %switch.select = select i1 %switch.selectcmp, ptr @.str.11, ptr null
  %switch.selectcmp6 = icmp eq i32 %2, 0
  %switch.select7 = select i1 %switch.selectcmp6, ptr @.str.10, ptr %switch.select
  tail call void @_ZN6google8protobuf8internal17PrintUTF8ErrorLogEPKcS3_b(ptr noundef %3, ptr noundef %switch.select7, i1 zeroext poison)
  br label %7

7:                                                ; preds = %4, %6
  ret i1 %5
}